; Function Attrs: mustprogress nofree norecurse nosync nounwind willreturn memory(read, inaccessiblemem: none) uwtable
define { ptr, i32 } @_ZNK10OpenSubdiv6v3_6_03Far10PatchTable19GetPatchQuadOffsetsERKNS2_11PatchHandleE(ptr nocapture noundef nonnull readonly align 8 dereferenceable(273) %0, ptr nocapture noundef nonnull readonly align 4 dereferenceable(12) %1) local_unnamed_addr #6 align 2 {
  %3 = load i32, ptr %1, align 4
  %4 = getelementptr inbounds nuw i8, ptr %0, i64 8
  %5 = sext i32 %3 to i64
  %6 = load ptr, ptr %4, align 8
  %7 = getelementptr inbounds nuw i8, ptr %0, i64 80
  %8 = getelementptr inbounds %"struct.OpenSubdiv::v3_6_0::Far::PatchTable::PatchArray", ptr %6, i64 %5, i32 4
  %9 = load i32, ptr %8, align 4
  %10 = getelementptr inbounds nuw i8, ptr %1, i64 8
  %11 = load i32, ptr %10, align 4
  %12 = add nsw i32 %11, %9
  %13 = sext i32 %12 to i64
  %14 = load ptr, ptr %7, align 8
  %15 = getelementptr inbounds i32, ptr %14, i64 %13
  %.fca.0.insert = insertvalue { ptr, i32 } poison, ptr %15, 0
  %.fca.1.insert = insertvalue { ptr, i32 } %.fca.0.insert, i32 4, 1
  ret { ptr, i32 } %.fca.1.insert
}